; Function Attrs: cold nounwind optsize uwtable
define noundef i32 @ff_vp8_decode_init(ptr noundef %0) #0 {
  %2 = getelementptr inbounds nuw i8, ptr %0, i64 32
  %3 = load ptr, ptr %2, align 8, !tbaa !4
  tail call fastcc void @vp78_decode_init(ptr noundef %0) #11
  %4 = getelementptr inbounds nuw i8, ptr %3, i64 5632
  tail call void @ff_h264_pred_init(ptr noundef nonnull %4, i32 noundef 139, i32 noundef 8, i32 noundef 1) #12
  %5 = getelementptr inbounds nuw i8, ptr %3, i64 5072
  tail call void @ff_vp8dsp_init(ptr noundef nonnull %5) #12
  %6 = getelementptr inbounds nuw i8, ptr %3, i64 6496
  store ptr @vp8_decode_mb_row_no_filter, ptr %6, align 8, !tbaa !168
  %7 = getelementptr inbounds nuw i8, ptr %3, i64 6504
  store ptr @vp8_filter_mb_row, ptr %7, align 8, !tbaa !169
  ret i32 0
}